target datalayout = "e-m:e-p270:32:32-p271:32:32-p272:64:64-i64:64-i128:128-f80:128-n8:16:32:64-S128"
target triple = "x86_64-pc-linux-gnu"

; Function Attrs: nounwind uwtable
define internal ptr @builtin_chr(ptr noundef %0, ptr noundef %1) #0 {
  %3 = alloca ptr, align 8
  %4 = alloca ptr, align 8
  %5 = alloca ptr, align 8
  %6 = alloca i32, align 4
  %7 = alloca i64, align 8
  %8 = alloca i32, align 4
  store ptr %0, ptr %4, align 8, !tbaa !4
  store ptr %1, ptr %5, align 8, !tbaa !4
  call void @llvm.lifetime.start.p0(i64 4, ptr %6) #9
  call void @llvm.lifetime.start.p0(i64 8, ptr %7) #9
  %9 = load ptr, ptr %5, align 8, !tbaa !4
  %10 = call i64 @PyLong_AsLongAndOverflow(ptr noundef %9, ptr noundef %6)
  store i64 %10, ptr %7, align 8, !tbaa !40
  %11 = load i64, ptr %7, align 8, !tbaa !40
  %12 = icmp eq i64 %11, -1
  br i1 %12, label %13, label %17

13:                                               ; preds = %2
  %14 = call ptr @PyErr_Occurred()
  %15 = icmp ne ptr %14, null
  br i1 %15, label %16, label %17

16:                                               ; preds = %13
  store ptr null, ptr %3, align 8
  store i32 1, ptr %8, align 4
  br label %39

17:                                               ; preds = %13, %2
  %18 = load i32, ptr %6, align 4, !tbaa !38
  %19 = icmp ne i32 %18, 0
  br i1 %19, label %20, label %25

20:                                               ; preds = %17
  %21 = load i32, ptr %6, align 4, !tbaa !38
  %22 = icmp slt i32 %21, 0
  %23 = select i1 %22, i32 -2147483648, i32 2147483647
  %24 = sext i32 %23 to i64
  store i64 %24, ptr %7, align 8, !tbaa !40
  br label %35

25:                                               ; preds = %17
  %26 = load i64, ptr %7, align 8, !tbaa !40
  %27 = icmp slt i64 %26, -2147483648
  br i1 %27, label %28, label %29

28:                                               ; preds = %25
  store i64 -2147483648, ptr %7, align 8, !tbaa !40
  br label %34

29:                                               ; preds = %25
  %30 = load i64, ptr %7, align 8, !tbaa !40
  %31 = icmp sgt i64 %30, 2147483647
  br i1 %31, label %32, label %33

32:                                               ; preds = %29
  store i64 2147483647, ptr %7, align 8, !tbaa !40
  br label %33

33:                                               ; preds = %32, %29
  br label %34

34:                                               ; preds = %33, %28
  br label %35

35:                                               ; preds = %34, %20
  %36 = load i64, ptr %7, align 8, !tbaa !40
  %37 = trunc i64 %36 to i32
  %38 = call ptr @PyUnicode_FromOrdinal(i32 noundef %37)
  store ptr %38, ptr %3, align 8
  store i32 1, ptr %8, align 4
  br label %39

39:                                               ; preds = %35, %16
  call void @llvm.lifetime.end.p0(i64 8, ptr %7) #9
  call void @llvm.lifetime.end.p0(i64 4, ptr %6) #9
  %40 = load ptr, ptr %3, align 8
  ret ptr %40
}