; Function Attrs: nounwind uwtable
define internal ptr @builtin_chr(ptr readnone captures(none) %0, ptr noundef %1) #0 {
  %3 = alloca i32, align 4
  call void @llvm.lifetime.start.p0(i64 4, ptr nonnull %3) #9
  %4 = call i64 @PyLong_AsLongAndOverflow(ptr noundef %1, ptr noundef nonnull %3) #9
  %5 = icmp eq i64 %4, -1
  br i1 %5, label %6, label %8

6:                                                ; preds = %2
  %7 = call ptr @PyErr_Occurred() #9
  %.not = icmp eq ptr %7, null
  br i1 %.not, label %.thread, label %20

8:                                                ; preds = %2
  %9 = load i32, ptr %3, align 4, !tbaa !53
  %.not8 = icmp eq i32 %9, 0
  br i1 %.not8, label %15, label %11

.thread:                                          ; preds = %6
  %10 = load i32, ptr %3, align 4, !tbaa !53
  %.not89 = icmp eq i32 %10, 0
  br i1 %.not89, label %.thread10, label %11

11:                                               ; preds = %.thread, %8
  %12 = phi i32 [ %10, %.thread ], [ %9, %8 ]
  %13 = icmp slt i32 %12, 0
  %14 = select i1 %13, i64 -2147483648, i64 2147483647
  br label %17

15:                                               ; preds = %8
  %16 = icmp slt i64 %4, -2147483648
  br i1 %16, label %17, label %.thread10

.thread10:                                        ; preds = %.thread, %15
  %spec.store.select = call i64 @llvm.smin.i64(i64 %4, i64 2147483647)
  br label %17

17:                                               ; preds = %15, %.thread10, %11
  %.0 = phi i64 [ %14, %11 ], [ %spec.store.select, %.thread10 ], [ -2147483648, %15 ]
  %18 = trunc i64 %.0 to i32
  %19 = call ptr @PyUnicode_FromOrdinal(i32 noundef %18) #9
  br label %20

20:                                               ; preds = %6, %17
  %.05 = phi ptr [ %19, %17 ], [ null, %6 ]
  call void @llvm.lifetime.end.p0(i64 4, ptr nonnull %3) #9
  ret ptr %.05
}